target datalayout = "e-m:e-p270:32:32-p271:32:32-p272:64:64-i64:64-i128:128-f80:128-n8:16:32:64-S128"
target triple = "x86_64-pc-linux-gnu"

%struct.Acb_Ntk_t_ = type { ptr, i32, i32, i32, i8, %struct.Vec_Int_t_, %struct.Vec_Int_t_, %struct.Vec_Int_t_, %struct.Vec_Int_t_, i32, i32, i32, i32, i32, %struct.Vec_Str_t_, %struct.Vec_Int_t_, %struct.Vec_Int_t_, %struct.Vec_Int_t_, %struct.Vec_Int_t_, %struct.Vec_Int_t_, %struct.Vec_Wrd_t_, %struct.Vec_Int_t_, %struct.Vec_Int_t_, %struct.Vec_Int_t_, %struct.Vec_Int_t_, %struct.Vec_Int_t_, %struct.Vec_Int_t_, %struct.Vec_Int_t_, %struct.Vec_Int_t_, %struct.Vec_Int_t_, %struct.Vec_Int_t_, %struct.Vec_Int_t_, %struct.Vec_Int_t_, %struct.Vec_Flt_t_, %struct.Vec_Wec_t_, %struct.Vec_Wec_t_, %struct.Vec_Str_t_, %struct.Vec_Int_t_, ptr, %struct.Vec_Int_t_, %struct.Vec_Int_t_, %struct.Vec_Int_t_, %struct.Vec_Int_t_ }
%struct.Vec_Wrd_t_ = type { i32, i32, ptr }
%struct.Vec_Flt_t_ = type { i32, i32, ptr }
%struct.Vec_Wec_t_ = type { i32, i32, ptr }
%struct.Vec_Str_t_ = type { i32, i32, ptr }
%struct.Vec_Int_t_ = type { i32, i32, ptr }
%struct.Vec_Que_t_ = type { i32, i32, ptr, ptr, ptr }

; Function Attrs: inlinehint nounwind uwtable
define internal i32 @Vec_IntEntry(ptr noundef %0, i32 noundef %1) #2 {
  %3 = alloca ptr, align 8
  %4 = alloca i32, align 4
  store ptr %0, ptr %3, align 8, !tbaa !27
  store i32 %1, ptr %4, align 4, !tbaa !8
  %5 = load ptr, ptr %3, align 8, !tbaa !27
  %6 = getelementptr inbounds nuw %struct.Vec_Int_t_, ptr %5, i32 0, i32 2
  %7 = load ptr, ptr %6, align 8, !tbaa !30
  %8 = load i32, ptr %4, align 4, !tbaa !8
  %9 = sext i32 %8 to i64
  %10 = getelementptr inbounds i32, ptr %7, i64 %9
  %11 = load i32, ptr %10, align 4, !tbaa !8
  ret i32 %11
}

; Function Attrs: inlinehint nounwind uwtable
define internal i32 @Vec_IntSize(ptr noundef %0) #2 {
  %2 = alloca ptr, align 8
  store ptr %0, ptr %2, align 8, !tbaa !27
  %3 = load ptr, ptr %2, align 8, !tbaa !27
  %4 = getelementptr inbounds nuw %struct.Vec_Int_t_, ptr %3, i32 0, i32 1
  %5 = load i32, ptr %4, align 4, !tbaa !28
  ret i32 %5
}

; Function Attrs: inlinehint nounwind uwtable
define internal void @Vec_QueClear(ptr noundef %0) #2 {
  %2 = alloca ptr, align 8
  %3 = alloca i32, align 4
  store ptr %0, ptr %2, align 8, !tbaa !102
  call void @llvm.lifetime.start.p0(i64 4, ptr %3) #12
  store i32 1, ptr %3, align 4, !tbaa !8
  br label %4

4:                                                ; preds = %29, %1
  %5 = load i32, ptr %3, align 4, !tbaa !8
  %6 = load ptr, ptr %2, align 8, !tbaa !102
  %7 = getelementptr inbounds nuw %struct.Vec_Que_t_, ptr %6, i32 0, i32 1
  %8 = load i32, ptr %7, align 4, !tbaa !103
  %9 = icmp slt i32 %5, %8
  br i1 %9, label %10, label %32

10:                                               ; preds = %4
  %11 = load ptr, ptr %2, align 8, !tbaa !102
  %12 = getelementptr inbounds nuw %struct.Vec_Que_t_, ptr %11, i32 0, i32 3
  %13 = load ptr, ptr %12, align 8, !tbaa !108
  %14 = load ptr, ptr %2, align 8, !tbaa !102
  %15 = getelementptr inbounds nuw %struct.Vec_Que_t_, ptr %14, i32 0, i32 2
  %16 = load ptr, ptr %15, align 8, !tbaa !107
  %17 = load i32, ptr %3, align 4, !tbaa !8
  %18 = sext i32 %17 to i64
  %19 = getelementptr inbounds i32, ptr %16, i64 %18
  %20 = load i32, ptr %19, align 4, !tbaa !8
  %21 = sext i32 %20 to i64
  %22 = getelementptr inbounds i32, ptr %13, i64 %21
  store i32 -1, ptr %22, align 4, !tbaa !8
  %23 = load ptr, ptr %2, align 8, !tbaa !102
  %24 = getelementptr inbounds nuw %struct.Vec_Que_t_, ptr %23, i32 0, i32 2
  %25 = load ptr, ptr %24, align 8, !tbaa !107
  %26 = load i32, ptr %3, align 4, !tbaa !8
  %27 = sext i32 %26 to i64
  %28 = getelementptr inbounds i32, ptr %25, i64 %27
  store i32 -1, ptr %28, align 4, !tbaa !8
  br label %29

29:                                               ; preds = %10
  %30 = load i32, ptr %3, align 4, !tbaa !8
  %31 = add nsw i32 %30, 1
  store i32 %31, ptr %3, align 4, !tbaa !8
  br label %4, !llvm.loop !117

32:                                               ; preds = %4
  %33 = load ptr, ptr %2, align 8, !tbaa !102
  %34 = getelementptr inbounds nuw %struct.Vec_Que_t_, ptr %33, i32 0, i32 1
  store i32 1, ptr %34, align 4, !tbaa !103
  call void @llvm.lifetime.end.p0(i64 4, ptr %3) #12
  ret void
}

; Function Attrs: inlinehint nounwind uwtable
define internal i32 @Vec_IntPop(ptr noundef %0) #2 {
  %2 = alloca ptr, align 8
  store ptr %0, ptr %2, align 8, !tbaa !27
  %3 = load ptr, ptr %2, align 8, !tbaa !27
  %4 = getelementptr inbounds nuw %struct.Vec_Int_t_, ptr %3, i32 0, i32 2
  %5 = load ptr, ptr %4, align 8, !tbaa !30
  %6 = load ptr, ptr %2, align 8, !tbaa !27
  %7 = getelementptr inbounds nuw %struct.Vec_Int_t_, ptr %6, i32 0, i32 1
  %8 = load i32, ptr %7, align 4, !tbaa !28
  %9 = add nsw i32 %8, -1
  store i32 %9, ptr %7, align 4, !tbaa !28
  %10 = sext i32 %9 to i64
  %11 = getelementptr inbounds i32, ptr %5, i64 %10
  %12 = load i32, ptr %11, align 4, !tbaa !8
  ret i32 %12
}

; Function Attrs: nounwind uwtable
define void @Acb_NtkUpdateTiming(ptr noundef %0, i32 noundef %1) #0 {
  %3 = alloca ptr, align 8
  %4 = alloca i32, align 4
  %5 = alloca i32, align 4
  %6 = alloca i32, align 4
  %7 = alloca i32, align 4
  %8 = alloca i32, align 4
  %9 = alloca i32, align 4
  %10 = alloca i32, align 4
  %11 = alloca i32, align 4
  %12 = alloca ptr, align 8
  %13 = alloca ptr, align 8
  store ptr %0, ptr %3, align 8, !tbaa !3
  store i32 %1, ptr %4, align 4, !tbaa !8
  call void @llvm.lifetime.start.p0(i64 4, ptr %5) #12
  call void @llvm.lifetime.start.p0(i64 4, ptr %6) #12
  call void @llvm.lifetime.start.p0(i64 4, ptr %7) #12
  %14 = load ptr, ptr %3, align 8, !tbaa !3
  %15 = getelementptr inbounds nuw %struct.Acb_Ntk_t_, ptr %14, i32 0, i32 12
  %16 = load i32, ptr %15, align 4, !tbaa !85
  store i32 %16, ptr %7, align 4, !tbaa !8
  call void @llvm.lifetime.start.p0(i64 4, ptr %8) #12
  call void @llvm.lifetime.start.p0(i64 4, ptr %9) #12
  call void @llvm.lifetime.start.p0(i64 4, ptr %10) #12
  call void @llvm.lifetime.start.p0(i64 4, ptr %11) #12
  call void @llvm.lifetime.start.p0(i64 8, ptr %12) #12
  %17 = load ptr, ptr %3, align 8, !tbaa !3
  %18 = load i32, ptr %4, align 4, !tbaa !8
  %19 = call ptr @Acb_ObjCollectTfi(ptr noundef %17, i32 noundef %18, i32 noundef 1)
  store ptr %19, ptr %12, align 8, !tbaa !27
  call void @llvm.lifetime.start.p0(i64 8, ptr %13) #12
  %20 = load ptr, ptr %3, align 8, !tbaa !3
  %21 = load i32, ptr %4, align 4, !tbaa !8
  %22 = call ptr @Acb_ObjCollectTfo(ptr noundef %20, i32 noundef %21, i32 noundef 1)
  store ptr %22, ptr %13, align 8, !tbaa !27
  %23 = load i32, ptr %4, align 4, !tbaa !8
  %24 = icmp sgt i32 %23, 0
  br i1 %24, label %25, label %28

25:                                               ; preds = %2
  %26 = load ptr, ptr %13, align 8, !tbaa !27
  %27 = call i32 @Vec_IntPop(ptr noundef %26)
  br label %28

28:                                               ; preds = %25, %2
  %29 = load ptr, ptr %3, align 8, !tbaa !3
  %30 = load ptr, ptr %13, align 8, !tbaa !27
  %31 = call i32 @Acb_NtkComputeLevelD(ptr noundef %29, ptr noundef %30)
  %32 = load ptr, ptr %3, align 8, !tbaa !3
  %33 = getelementptr inbounds nuw %struct.Acb_Ntk_t_, ptr %32, i32 0, i32 12
  %34 = load i32, ptr %33, align 4, !tbaa !85
  store i32 %34, ptr %8, align 4, !tbaa !8
  %35 = load ptr, ptr %3, align 8, !tbaa !3
  %36 = load ptr, ptr %12, align 8, !tbaa !27
  %37 = call i32 @Acb_NtkComputeLevelR(ptr noundef %35, ptr noundef %36)
  %38 = load ptr, ptr %3, align 8, !tbaa !3
  %39 = getelementptr inbounds nuw %struct.Acb_Ntk_t_, ptr %38, i32 0, i32 12
  %40 = load i32, ptr %39, align 4, !tbaa !85
  store i32 %40, ptr %9, align 4, !tbaa !8
  %41 = load i32, ptr %4, align 4, !tbaa !8
  %42 = icmp sgt i32 %41, 0
  br i1 %42, label %43, label %57

43:                                               ; preds = %28
  %44 = load i32, ptr %7, align 4, !tbaa !8
  %45 = load ptr, ptr %3, align 8, !tbaa !3
  %46 = getelementptr inbounds nuw %struct.Acb_Ntk_t_, ptr %45, i32 0, i32 12
  %47 = load i32, ptr %46, align 4, !tbaa !85
  %48 = icmp sgt i32 %44, %47
  br i1 %48, label %49, label %57

49:                                               ; preds = %43
  store i32 -1, ptr %4, align 4, !tbaa !8
  %50 = load ptr, ptr %3, align 8, !tbaa !3
  %51 = call ptr @Acb_ObjCollectTfi(ptr noundef %50, i32 noundef -1, i32 noundef 1)
  store ptr %51, ptr %12, align 8, !tbaa !27
  %52 = load ptr, ptr %3, align 8, !tbaa !3
  %53 = call ptr @Acb_ObjCollectTfo(ptr noundef %52, i32 noundef -1, i32 noundef 1)
  store ptr %53, ptr %13, align 8, !tbaa !27
  %54 = load ptr, ptr %3, align 8, !tbaa !3
  %55 = getelementptr inbounds nuw %struct.Acb_Ntk_t_, ptr %54, i32 0, i32 38
  %56 = load ptr, ptr %55, align 8, !tbaa !101
  call void @Vec_QueClear(ptr noundef %56)
  br label %57

57:                                               ; preds = %49, %43, %28
  %58 = load i32, ptr %4, align 4, !tbaa !8
  %59 = icmp sgt i32 %58, 0
  br i1 %59, label %60, label %64

60:                                               ; preds = %57
  %61 = load ptr, ptr %3, align 8, !tbaa !3
  %62 = load ptr, ptr %12, align 8, !tbaa !27
  %63 = call i32 @Acb_NtkComputePathsD(ptr noundef %61, ptr noundef %62, i32 noundef 0)
  br label %64

64:                                               ; preds = %60, %57
  %65 = load ptr, ptr %3, align 8, !tbaa !3
  %66 = load ptr, ptr %13, align 8, !tbaa !27
  %67 = call i32 @Acb_NtkComputePathsD(ptr noundef %65, ptr noundef %66, i32 noundef 1)
  %68 = load ptr, ptr %3, align 8, !tbaa !3
  %69 = getelementptr inbounds nuw %struct.Acb_Ntk_t_, ptr %68, i32 0, i32 13
  %70 = load i32, ptr %69, align 8, !tbaa !93
  store i32 %70, ptr %10, align 4, !tbaa !8
  %71 = load i32, ptr %4, align 4, !tbaa !8
  %72 = icmp sgt i32 %71, 0
  br i1 %72, label %73, label %77

73:                                               ; preds = %64
  %74 = load ptr, ptr %3, align 8, !tbaa !3
  %75 = load ptr, ptr %13, align 8, !tbaa !27
  %76 = call i32 @Acb_NtkComputePathsR(ptr noundef %74, ptr noundef %75, i32 noundef 0)
  br label %77

77:                                               ; preds = %73, %64
  %78 = load ptr, ptr %3, align 8, !tbaa !3
  %79 = load ptr, ptr %12, align 8, !tbaa !27
  %80 = call i32 @Acb_NtkComputePathsR(ptr noundef %78, ptr noundef %79, i32 noundef 1)
  %81 = load ptr, ptr %3, align 8, !tbaa !3
  %82 = getelementptr inbounds nuw %struct.Acb_Ntk_t_, ptr %81, i32 0, i32 13
  %83 = load i32, ptr %82, align 8, !tbaa !93
  store i32 %83, ptr %11, align 4, !tbaa !8
  store i32 0, ptr %5, align 4, !tbaa !8
  br label %84

84:                                               ; preds = %98, %77
  %85 = load i32, ptr %5, align 4, !tbaa !8
  %86 = load ptr, ptr %12, align 8, !tbaa !27
  %87 = call i32 @Vec_IntSize(ptr noundef %86)
  %88 = icmp slt i32 %85, %87
  br i1 %88, label %89, label %93

89:                                               ; preds = %84
  %90 = load ptr, ptr %12, align 8, !tbaa !27
  %91 = load i32, ptr %5, align 4, !tbaa !8
  %92 = call i32 @Vec_IntEntry(ptr noundef %90, i32 noundef %91)
  store i32 %92, ptr %6, align 4, !tbaa !8
  br label %93

93:                                               ; preds = %89, %84
  %94 = phi i1 [ false, %84 ], [ true, %89 ]
  br i1 %94, label %95, label %101

95:                                               ; preds = %93
  %96 = load ptr, ptr %3, align 8, !tbaa !3
  %97 = load i32, ptr %6, align 4, !tbaa !8
  call void @Acb_ObjUpdatePriority(ptr noundef %96, i32 noundef %97)
  br label %98

98:                                               ; preds = %95
  %99 = load i32, ptr %5, align 4, !tbaa !8
  %100 = add nsw i32 %99, 1
  store i32 %100, ptr %5, align 4, !tbaa !8
  br label %84, !llvm.loop !115

101:                                              ; preds = %93
  %102 = load i32, ptr %4, align 4, !tbaa !8
  %103 = icmp sgt i32 %102, 0
  br i1 %103, label %104, label %123

104:                                              ; preds = %101
  store i32 0, ptr %5, align 4, !tbaa !8
  br label %105

105:                                              ; preds = %119, %104
  %106 = load i32, ptr %5, align 4, !tbaa !8
  %107 = load ptr, ptr %13, align 8, !tbaa !27
  %108 = call i32 @Vec_IntSize(ptr noundef %107)
  %109 = icmp slt i32 %106, %108
  br i1 %109, label %110, label %114

110:                                              ; preds = %105
  %111 = load ptr, ptr %13, align 8, !tbaa !27
  %112 = load i32, ptr %5, align 4, !tbaa !8
  %113 = call i32 @Vec_IntEntry(ptr noundef %111, i32 noundef %112)
  store i32 %113, ptr %6, align 4, !tbaa !8
  br label %114

114:                                              ; preds = %110, %105
  %115 = phi i1 [ false, %105 ], [ true, %110 ]
  br i1 %115, label %116, label %122

116:                                              ; preds = %114
  %117 = load ptr, ptr %3, align 8, !tbaa !3
  %118 = load i32, ptr %6, align 4, !tbaa !8
  call void @Acb_ObjUpdatePriority(ptr noundef %117, i32 noundef %118)
  br label %119

119:                                              ; preds = %116
  %120 = load i32, ptr %5, align 4, !tbaa !8
  %121 = add nsw i32 %120, 1
  store i32 %121, ptr %5, align 4, !tbaa !8
  br label %105, !llvm.loop !116

122:                                              ; preds = %114
  br label %123

123:                                              ; preds = %122, %101
  call void @llvm.lifetime.end.p0(i64 8, ptr %13) #12
  call void @llvm.lifetime.end.p0(i64 8, ptr %12) #12
  call void @llvm.lifetime.end.p0(i64 4, ptr %11) #12
  call void @llvm.lifetime.end.p0(i64 4, ptr %10) #12
  call void @llvm.lifetime.end.p0(i64 4, ptr %9) #12
  call void @llvm.lifetime.end.p0(i64 4, ptr %8) #12
  call void @llvm.lifetime.end.p0(i64 4, ptr %7) #12
  call void @llvm.lifetime.end.p0(i64 4, ptr %6) #12
  call void @llvm.lifetime.end.p0(i64 4, ptr %5) #12
  ret void
}