; Function Attrs: nounwind uwtable
define void @Acb_NtkUpdateTiming(ptr noundef initializes((524, 528)) %0, i32 noundef %1) local_unnamed_addr #0 {
  %3 = getelementptr inbounds nuw i8, ptr %0, i64 100
  %4 = load i32, ptr %3, align 4, !tbaa !95
  %5 = tail call ptr @Acb_ObjCollectTfi(ptr noundef %0, i32 noundef %1, i32 noundef 1)
  %6 = tail call ptr @Acb_ObjCollectTfo(ptr noundef %0, i32 noundef %1, i32 noundef 1)
  %7 = icmp sgt i32 %1, 0
  br i1 %7, label %8, label %.critedge53

8:                                                ; preds = %2
  %9 = getelementptr inbounds nuw i8, ptr %6, i64 4
  %10 = load i32, ptr %9, align 4, !tbaa !27
  %11 = add nsw i32 %10, -1
  store i32 %11, ptr %9, align 4, !tbaa !27
  %12 = tail call i32 @Acb_NtkComputeLevelD(ptr noundef nonnull %0, ptr noundef nonnull %6)
  %13 = tail call i32 @Acb_NtkComputeLevelR(ptr noundef nonnull %0, ptr noundef nonnull %5)
  %14 = load i32, ptr %3, align 4, !tbaa !95
  %15 = icmp sgt i32 %4, %14
  br i1 %15, label %16, label %102

16:                                               ; preds = %8
  %17 = getelementptr inbounds nuw i8, ptr %0, i64 524
  store i32 0, ptr %17, align 4, !tbaa !27
  %18 = getelementptr i8, ptr %0, i64 260
  %.val.i.i = load i32, ptr %18, align 4, !tbaa !27
  %19 = icmp slt i32 %.val.i.i, 1
  br i1 %19, label %20, label %Acb_NtkIncTravId.exit.i

20:                                               ; preds = %16
  %21 = getelementptr inbounds nuw i8, ptr %0, i64 256
  %22 = getelementptr inbounds nuw i8, ptr %0, i64 112
  %.val.i.i.i = load i32, ptr %22, align 8, !tbaa !29
  %23 = load i32, ptr %21, align 8, !tbaa !28
  %.not.i.i.i.i.i = icmp slt i32 %23, %.val.i.i.i
  br i1 %.not.i.i.i.i.i, label %24, label %Vec_IntGrow.exit.i.i.i.i

24:                                               ; preds = %20
  %25 = getelementptr inbounds nuw i8, ptr %0, i64 264
  %26 = load ptr, ptr %25, align 8, !tbaa !21
  %.not9.i.i.i.i.i = icmp eq ptr %26, null
  %27 = sext i32 %.val.i.i.i to i64
  %28 = shl nsw i64 %27, 2
  br i1 %.not9.i.i.i.i.i, label %31, label %29

29:                                               ; preds = %24
  %30 = tail call ptr @realloc(ptr noundef nonnull %26, i64 noundef %28) #25
  br label %33

31:                                               ; preds = %24
  %32 = tail call noalias ptr @malloc(i64 noundef %28) #26
  br label %33

33:                                               ; preds = %31, %29
  %34 = phi ptr [ %30, %29 ], [ %32, %31 ]
  store ptr %34, ptr %25, align 8, !tbaa !21
  store i32 %.val.i.i.i, ptr %21, align 8, !tbaa !28
  br label %Vec_IntGrow.exit.i.i.i.i

Vec_IntGrow.exit.i.i.i.i:                         ; preds = %33, %20
  %35 = icmp sgt i32 %.val.i.i.i, 0
  br i1 %35, label %.lr.ph.i.i.i.i, label %Acb_NtkCleanObjTravs.exit.i.i

.lr.ph.i.i.i.i:                                   ; preds = %Vec_IntGrow.exit.i.i.i.i
  %36 = getelementptr inbounds nuw i8, ptr %0, i64 264
  %37 = load ptr, ptr %36, align 8, !tbaa !21
  %wide.trip.count.i.i.i.i = zext nneg i32 %.val.i.i.i to i64
  %38 = shl nuw nsw i64 %wide.trip.count.i.i.i.i, 2
  tail call void @llvm.memset.p0.i64(ptr align 4 %37, i8 0, i64 %38, i1 false), !tbaa !22
  br label %Acb_NtkCleanObjTravs.exit.i.i

Acb_NtkCleanObjTravs.exit.i.i:                    ; preds = %.lr.ph.i.i.i.i, %Vec_IntGrow.exit.i.i.i.i
  store i32 %.val.i.i.i, ptr %18, align 4, !tbaa !27
  br label %Acb_NtkIncTravId.exit.i

Acb_NtkIncTravId.exit.i:                          ; preds = %Acb_NtkCleanObjTravs.exit.i.i, %16
  %.val.i.i5892 = phi i32 [ %.val.i.i.i, %Acb_NtkCleanObjTravs.exit.i.i ], [ %.val.i.i, %16 ]
  %39 = getelementptr inbounds nuw i8, ptr %0, i64 96
  %40 = load i32, ptr %39, align 8, !tbaa !3
  %41 = add nsw i32 %40, 1
  store i32 %41, ptr %39, align 8, !tbaa !3
  %42 = getelementptr i8, ptr %0, i64 44
  %.val2629.i = load i32, ptr %42, align 4, !tbaa !27
  %43 = icmp sgt i32 %.val2629.i, 0
  br i1 %43, label %.lr.ph.i, label %Acb_ObjCollectTfi.exit

.lr.ph.i:                                         ; preds = %Acb_NtkIncTravId.exit.i
  %44 = getelementptr i8, ptr %0, i64 48
  br label %45

45:                                               ; preds = %45, %.lr.ph.i
  %indvars.iv.i = phi i64 [ 0, %.lr.ph.i ], [ %indvars.iv.next.i, %45 ]
  %.val27.i = load ptr, ptr %44, align 8, !tbaa !21
  %46 = getelementptr inbounds nuw i32, ptr %.val27.i, i64 %indvars.iv.i
  %47 = load i32, ptr %46, align 4, !tbaa !22
  tail call void @Acb_ObjCollectTfi_rec(ptr noundef nonnull %0, i32 noundef %47, i32 noundef 1)
  %indvars.iv.next.i = add nuw nsw i64 %indvars.iv.i, 1
  %.val26.i = load i32, ptr %42, align 4, !tbaa !27
  %48 = sext i32 %.val26.i to i64
  %49 = icmp slt i64 %indvars.iv.next.i, %48
  br i1 %49, label %45, label %Acb_ObjCollectTfi.exit.loopexit, !llvm.loop !31

Acb_ObjCollectTfi.exit.loopexit:                  ; preds = %45
  %.val.i.i58.pre = load i32, ptr %18, align 4, !tbaa !27
  br label %Acb_ObjCollectTfi.exit

Acb_ObjCollectTfi.exit:                           ; preds = %Acb_ObjCollectTfi.exit.loopexit, %Acb_NtkIncTravId.exit.i
  %.val.i.i58 = phi i32 [ %.val.i.i58.pre, %Acb_ObjCollectTfi.exit.loopexit ], [ %.val.i.i5892, %Acb_NtkIncTravId.exit.i ]
  %50 = getelementptr inbounds nuw i8, ptr %0, i64 520
  %51 = getelementptr inbounds nuw i8, ptr %0, i64 540
  store i32 0, ptr %51, align 4, !tbaa !27
  %52 = icmp slt i32 %.val.i.i58, 1
  br i1 %52, label %53, label %Acb_NtkIncTravId.exit.i59

53:                                               ; preds = %Acb_ObjCollectTfi.exit
  %54 = getelementptr inbounds nuw i8, ptr %0, i64 256
  %55 = getelementptr inbounds nuw i8, ptr %0, i64 112
  %.val.i.i.i63 = load i32, ptr %55, align 8, !tbaa !29
  %56 = load i32, ptr %54, align 8, !tbaa !28
  %.not.i.i.i.i.i64 = icmp slt i32 %56, %.val.i.i.i63
  br i1 %.not.i.i.i.i.i64, label %57, label %Vec_IntGrow.exit.i.i.i.i65

57:                                               ; preds = %53
  %58 = getelementptr inbounds nuw i8, ptr %0, i64 264
  %59 = load ptr, ptr %58, align 8, !tbaa !21
  %.not9.i.i.i.i.i69 = icmp eq ptr %59, null
  %60 = sext i32 %.val.i.i.i63 to i64
  %61 = shl nsw i64 %60, 2
  br i1 %.not9.i.i.i.i.i69, label %64, label %62

62:                                               ; preds = %57
  %63 = tail call ptr @realloc(ptr noundef nonnull %59, i64 noundef %61) #25
  br label %66

64:                                               ; preds = %57
  %65 = tail call noalias ptr @malloc(i64 noundef %61) #26
  br label %66

66:                                               ; preds = %64, %62
  %67 = phi ptr [ %63, %62 ], [ %65, %64 ]
  store ptr %67, ptr %58, align 8, !tbaa !21
  store i32 %.val.i.i.i63, ptr %54, align 8, !tbaa !28
  br label %Vec_IntGrow.exit.i.i.i.i65

Vec_IntGrow.exit.i.i.i.i65:                       ; preds = %66, %53
  %68 = icmp sgt i32 %.val.i.i.i63, 0
  br i1 %68, label %.lr.ph.i.i.i.i67, label %Acb_NtkCleanObjTravs.exit.i.i66

.lr.ph.i.i.i.i67:                                 ; preds = %Vec_IntGrow.exit.i.i.i.i65
  %69 = getelementptr inbounds nuw i8, ptr %0, i64 264
  %70 = load ptr, ptr %69, align 8, !tbaa !21
  %wide.trip.count.i.i.i.i68 = zext nneg i32 %.val.i.i.i63 to i64
  %71 = shl nuw nsw i64 %wide.trip.count.i.i.i.i68, 2
  tail call void @llvm.memset.p0.i64(ptr align 4 %70, i8 0, i64 %71, i1 false), !tbaa !22
  br label %Acb_NtkCleanObjTravs.exit.i.i66

Acb_NtkCleanObjTravs.exit.i.i66:                  ; preds = %.lr.ph.i.i.i.i67, %Vec_IntGrow.exit.i.i.i.i65
  store i32 %.val.i.i.i63, ptr %18, align 4, !tbaa !27
  br label %Acb_NtkIncTravId.exit.i59

Acb_NtkIncTravId.exit.i59:                        ; preds = %Acb_NtkCleanObjTravs.exit.i.i66, %Acb_ObjCollectTfi.exit
  %72 = load i32, ptr %39, align 8, !tbaa !3
  %73 = add nsw i32 %72, 1
  store i32 %73, ptr %39, align 8, !tbaa !3
  %74 = getelementptr i8, ptr %0, i64 28
  %.val16.i = load i32, ptr %74, align 4, !tbaa !27
  %75 = icmp sgt i32 %.val16.i, 0
  br i1 %75, label %.lr.ph.i60, label %Acb_ObjCollectTfo.exit

.lr.ph.i60:                                       ; preds = %Acb_NtkIncTravId.exit.i59
  %76 = getelementptr i8, ptr %0, i64 32
  br label %77

77:                                               ; preds = %77, %.lr.ph.i60
  %indvars.iv.i61 = phi i64 [ 0, %.lr.ph.i60 ], [ %indvars.iv.next.i62, %77 ]
  %.val15.i = load ptr, ptr %76, align 8, !tbaa !21
  %78 = getelementptr inbounds nuw i32, ptr %.val15.i, i64 %indvars.iv.i61
  %79 = load i32, ptr %78, align 4, !tbaa !22
  tail call void @Acb_ObjCollectTfo_rec(ptr noundef nonnull %0, i32 noundef %79, i32 noundef 1)
  %indvars.iv.next.i62 = add nuw nsw i64 %indvars.iv.i61, 1
  %.val.i = load i32, ptr %74, align 4, !tbaa !27
  %80 = sext i32 %.val.i to i64
  %81 = icmp slt i64 %indvars.iv.next.i62, %80
  br i1 %81, label %77, label %Acb_ObjCollectTfo.exit, !llvm.loop !35

Acb_ObjCollectTfo.exit:                           ; preds = %77, %Acb_NtkIncTravId.exit.i59
  %82 = getelementptr inbounds nuw i8, ptr %0, i64 536
  %83 = getelementptr inbounds nuw i8, ptr %0, i64 496
  %84 = load ptr, ptr %83, align 8, !tbaa !111
  %85 = getelementptr inbounds nuw i8, ptr %84, i64 4
  %86 = load i32, ptr %85, align 4, !tbaa !113
  %87 = icmp sgt i32 %86, 1
  br i1 %87, label %.lr.ph.i70, label %Vec_QueClear.exit

.lr.ph.i70:                                       ; preds = %Acb_ObjCollectTfo.exit
  %88 = getelementptr inbounds nuw i8, ptr %84, i64 16
  %89 = load ptr, ptr %88, align 8, !tbaa !76
  %90 = getelementptr inbounds nuw i8, ptr %84, i64 8
  %91 = load ptr, ptr %90, align 8, !tbaa !79
  br label %92

92:                                               ; preds = %92, %.lr.ph.i70
  %indvars.iv.i71 = phi i64 [ 1, %.lr.ph.i70 ], [ %indvars.iv.next.i72, %92 ]
  %93 = getelementptr inbounds nuw i32, ptr %91, i64 %indvars.iv.i71
  %94 = load i32, ptr %93, align 4, !tbaa !22
  %95 = sext i32 %94 to i64
  %96 = getelementptr inbounds i32, ptr %89, i64 %95
  store i32 -1, ptr %96, align 4, !tbaa !22
  store i32 -1, ptr %93, align 4, !tbaa !22
  %indvars.iv.next.i72 = add nuw nsw i64 %indvars.iv.i71, 1
  %97 = load i32, ptr %85, align 4, !tbaa !113
  %98 = sext i32 %97 to i64
  %99 = icmp slt i64 %indvars.iv.next.i72, %98
  br i1 %99, label %92, label %Vec_QueClear.exit, !llvm.loop !118

Vec_QueClear.exit:                                ; preds = %92, %Acb_ObjCollectTfo.exit
  store i32 1, ptr %85, align 4, !tbaa !113
  br label %.critedge55

.critedge53:                                      ; preds = %2
  %100 = tail call i32 @Acb_NtkComputeLevelD(ptr noundef nonnull %0, ptr noundef nonnull %6)
  %101 = tail call i32 @Acb_NtkComputeLevelR(ptr noundef nonnull %0, ptr noundef nonnull %5)
  br label %.critedge55

102:                                              ; preds = %8
  %103 = tail call i32 @Acb_NtkComputePathsD(ptr noundef nonnull %0, ptr noundef nonnull %5, i32 noundef 0)
  %104 = tail call i32 @Acb_NtkComputePathsD(ptr noundef nonnull %0, ptr noundef nonnull %6, i32 noundef 1)
  %105 = tail call i32 @Acb_NtkComputePathsR(ptr noundef nonnull %0, ptr noundef nonnull %6, i32 noundef 0)
  br label %107

.critedge55:                                      ; preds = %Vec_QueClear.exit, %.critedge53
  %.047.ph = phi ptr [ %5, %.critedge53 ], [ %50, %Vec_QueClear.exit ]
  %.0.ph = phi ptr [ %6, %.critedge53 ], [ %82, %Vec_QueClear.exit ]
  %106 = tail call i32 @Acb_NtkComputePathsD(ptr noundef %0, ptr noundef nonnull %.0.ph, i32 noundef 1)
  br label %107

107:                                              ; preds = %.critedge55, %102
  %.081 = phi ptr [ %.0.ph, %.critedge55 ], [ %6, %102 ]
  %.04778 = phi ptr [ %.047.ph, %.critedge55 ], [ %5, %102 ]
  %.04876 = phi i1 [ false, %.critedge55 ], [ true, %102 ]
  %108 = tail call i32 @Acb_NtkComputePathsR(ptr noundef %0, ptr noundef %.04778, i32 noundef 1)
  %109 = getelementptr i8, ptr %.04778, i64 4
  %.047.val5782 = load i32, ptr %109, align 4, !tbaa !27
  %110 = icmp sgt i32 %.047.val5782, 0
  br i1 %110, label %.lr.ph, label %.critedge

.lr.ph:                                           ; preds = %107
  %111 = getelementptr i8, ptr %.04778, i64 8
  br label %112

112:                                              ; preds = %.lr.ph, %112
  %indvars.iv = phi i64 [ 0, %.lr.ph ], [ %indvars.iv.next, %112 ]
  %.047.val = load ptr, ptr %111, align 8, !tbaa !21
  %113 = getelementptr inbounds nuw i32, ptr %.047.val, i64 %indvars.iv
  %114 = load i32, ptr %113, align 4, !tbaa !22
  tail call void @Acb_ObjUpdatePriority(ptr noundef %0, i32 noundef %114)
  %indvars.iv.next = add nuw nsw i64 %indvars.iv, 1
  %.047.val57 = load i32, ptr %109, align 4, !tbaa !27
  %115 = sext i32 %.047.val57 to i64
  %116 = icmp slt i64 %indvars.iv.next, %115
  br i1 %116, label %112, label %.critedge, !llvm.loop !119

.critedge:                                        ; preds = %112, %107
  br i1 %.04876, label %.preheader, label %.critedge2

.preheader:                                       ; preds = %.critedge
  %117 = getelementptr i8, ptr %.081, i64 4
  %.0.val5684 = load i32, ptr %117, align 4, !tbaa !27
  %118 = icmp sgt i32 %.0.val5684, 0
  br i1 %118, label %.lr.ph86, label %.critedge2

.lr.ph86:                                         ; preds = %.preheader
  %119 = getelementptr i8, ptr %.081, i64 8
  br label %120

120:                                              ; preds = %.lr.ph86, %120
  %indvars.iv88 = phi i64 [ 0, %.lr.ph86 ], [ %indvars.iv.next89, %120 ]
  %.0.val = load ptr, ptr %119, align 8, !tbaa !21
  %121 = getelementptr inbounds nuw i32, ptr %.0.val, i64 %indvars.iv88
  %122 = load i32, ptr %121, align 4, !tbaa !22
  tail call void @Acb_ObjUpdatePriority(ptr noundef %0, i32 noundef %122)
  %indvars.iv.next89 = add nuw nsw i64 %indvars.iv88, 1
  %.0.val56 = load i32, ptr %117, align 4, !tbaa !27
  %123 = sext i32 %.0.val56 to i64
  %124 = icmp slt i64 %indvars.iv.next89, %123
  br i1 %124, label %120, label %.critedge2, !llvm.loop !120

.critedge2:                                       ; preds = %120, %.preheader, %.critedge
  ret void
}